; Function Attrs: mustprogress uwtable
define hidden void @_ZN3api7context14set_error_codeE13Z3_error_codePKc(ptr noundef nonnull align 8 dereferenceable(3056) initializes((1568, 1572)) %0, i32 noundef %1, ptr noundef %2) local_unnamed_addr #3 align 2 personality ptr @__gxx_personality_v0 {
  %4 = getelementptr inbounds nuw i8, ptr %0, i64 1568
  store i32 %1, ptr %4, align 8, !tbaa !248
  %.not = icmp eq i32 %1, 0
  br i1 %.not, label %_ZN3api7context20invoke_error_handlerE13Z3_error_code.exit, label %5

5:                                                ; preds = %3
  %6 = getelementptr inbounds nuw i8, ptr %0, i64 1584
  %7 = getelementptr inbounds nuw i8, ptr %0, i64 1592
  store i64 0, ptr %7, align 8, !tbaa !239
  %8 = load ptr, ptr %6, align 8, !tbaa !261
  store i8 0, ptr %8, align 1, !tbaa !240
  %.not6 = icmp eq ptr %2, null
  br i1 %.not6, label %13, label %9

9:                                                ; preds = %5
  %10 = load i64, ptr %7, align 8, !tbaa !239
  %11 = tail call noundef i64 @strlen(ptr noundef nonnull dereferenceable(1) %2) #28
  %12 = tail call noundef nonnull align 8 dereferenceable(32) ptr @_ZNSt7__cxx1112basic_stringIcSt11char_traitsIcESaIcEE10_M_replaceEmmPKcm(ptr noundef nonnull align 8 dereferenceable(32) %6, i64 noundef 0, i64 noundef %10, ptr noundef nonnull %2, i64 noundef %11)
  br label %13

13:                                               ; preds = %9, %5
  %14 = getelementptr inbounds nuw i8, ptr %0, i64 1576
  %15 = load ptr, ptr %14, align 8, !tbaa !250
  %.not.i = icmp eq ptr %15, null
  br i1 %.not.i, label %_ZN3api7context20invoke_error_handlerE13Z3_error_code.exit, label %16

16:                                               ; preds = %13
  tail call void @_Z18ctx_enable_loggingv()
  %17 = load ptr, ptr %14, align 8, !tbaa !250
  tail call void %17(ptr noundef nonnull align 8 dereferenceable(3056) %0, i32 noundef %1)
  br label %_ZN3api7context20invoke_error_handlerE13Z3_error_code.exit

_ZN3api7context20invoke_error_handlerE13Z3_error_code.exit: ; preds = %16, %13, %3
  ret void
}